; Function Attrs: mustprogress uwtable
define void @_ZN5Ipopt16AlgorithmBuilder20BuildIterationOutputERKNS_10JournalistERKNS_11OptionsListERKNSt7__cxx1112basic_stringIcSt11char_traitsIcESaIcEEE(ptr dead_on_unwind noalias nocapture writable writeonly sret(%"class.Ipopt::SmartPtr.11") align 8 %0, ptr nocapture nonnull readnone align 8 %1, ptr nocapture nonnull readnone align 8 %2, ptr nocapture nonnull readnone align 8 %3, ptr nocapture nonnull readnone align 8 %4) unnamed_addr #4 align 2 personality ptr @__gxx_personality_v0 {
  %6 = tail call noalias noundef nonnull dereferenceable(72) ptr @_Znwm(i64 noundef 72) #16
  invoke void @_ZN5Ipopt19OrigIterationOutputC1Ev(ptr noundef nonnull align 8 dereferenceable(72) %6)
          to label %_ZN5Ipopt8SmartPtrINS_15IterationOutputEEC2EPS1_.exit unwind label %10

_ZN5Ipopt8SmartPtrINS_15IterationOutputEEC2EPS1_.exit: ; preds = %5
  %7 = getelementptr inbounds i8, ptr %6, i64 8
  %8 = load i32, ptr %7, align 8
  %9 = add nsw i32 %8, 1
  store i32 %9, ptr %7, align 8
  store ptr %6, ptr %0, align 8
  ret void

10:                                               ; preds = %5
  %11 = landingpad { ptr, i32 }
          cleanup
  tail call void @_ZdlPv(ptr noundef nonnull %6) #17
  resume { ptr, i32 } %11
}